; Function Attrs: mustprogress nounwind uwtable
define internal fastcc void @_ZL13forceRenamingPN4llvm11GlobalValueENS_9StringRefE(ptr noundef %0, ptr %1, i64 %2) unnamed_addr #1 {
  %4 = alloca %"class.llvm::Twine", align 8
  %5 = alloca %"class.llvm::Twine", align 8
  %6 = getelementptr inbounds nuw i8, ptr %0, i64 32
  %7 = load i32, ptr %6, align 8
  %8 = and i32 %7, 15
  %9 = add nsw i32 %8, -7
  %spec.select.i.i = icmp ult i32 %9, 2
  br i1 %spec.select.i.i, label %_ZN4llvmeqENS_9StringRefES0_.exit.thread, label %10

10:                                               ; preds = %3
  %11 = tail call { ptr, i64 } @_ZNK4llvm5Value7getNameEv(ptr noundef nonnull align 8 dereferenceable(24) %0) #18
  %12 = extractvalue { ptr, i64 } %11, 0
  %13 = extractvalue { ptr, i64 } %11, 1
  %.not.i = icmp eq i64 %13, %2
  br i1 %.not.i, label %14, label %_ZN4llvmeqENS_9StringRefES0_.exit.thread18

14:                                               ; preds = %10
  %15 = icmp eq i64 %2, 0
  br i1 %15, label %_ZN4llvmeqENS_9StringRefES0_.exit.thread, label %_ZN4llvmeqENS_9StringRefES0_.exit

_ZN4llvmeqENS_9StringRefES0_.exit:                ; preds = %14
  %bcmp.i = tail call i32 @bcmp(ptr %12, ptr %1, i64 %2)
  %16 = icmp eq i32 %bcmp.i, 0
  br i1 %16, label %_ZN4llvmeqENS_9StringRefES0_.exit.thread, label %_ZN4llvmeqENS_9StringRefES0_.exit.thread18

_ZN4llvmeqENS_9StringRefES0_.exit.thread18:       ; preds = %10, %_ZN4llvmeqENS_9StringRefES0_.exit
  %17 = getelementptr inbounds nuw i8, ptr %0, i64 40
  %18 = load ptr, ptr %17, align 8
  %19 = tail call noundef ptr @_ZNK4llvm6Module13getNamedValueENS_9StringRefE(ptr noundef nonnull align 8 dereferenceable(857) %18, ptr %1, i64 %2) #18
  %.not = icmp eq ptr %19, null
  br i1 %.not, label %24, label %20

20:                                               ; preds = %_ZN4llvmeqENS_9StringRefES0_.exit.thread18
  tail call void @_ZN4llvm5Value8takeNameEPS0_(ptr noundef nonnull align 8 dereferenceable(24) %0, ptr noundef nonnull %19) #18
  %21 = getelementptr inbounds nuw i8, ptr %4, i64 32
  store i8 5, ptr %21, align 8
  %22 = getelementptr inbounds nuw i8, ptr %4, i64 33
  store i8 1, ptr %22, align 1
  store ptr %1, ptr %4, align 8
  %23 = getelementptr inbounds nuw i8, ptr %4, i64 8
  store i64 %2, ptr %23, align 8
  call void @_ZN4llvm5Value7setNameERKNS_5TwineE(ptr noundef nonnull align 8 dereferenceable(24) %19, ptr noundef nonnull align 8 dereferenceable(34) %4) #18
  br label %_ZN4llvmeqENS_9StringRefES0_.exit.thread

24:                                               ; preds = %_ZN4llvmeqENS_9StringRefES0_.exit.thread18
  %25 = getelementptr inbounds nuw i8, ptr %5, i64 32
  store i8 5, ptr %25, align 8
  %26 = getelementptr inbounds nuw i8, ptr %5, i64 33
  store i8 1, ptr %26, align 1
  store ptr %1, ptr %5, align 8
  %27 = getelementptr inbounds nuw i8, ptr %5, i64 8
  store i64 %2, ptr %27, align 8
  call void @_ZN4llvm5Value7setNameERKNS_5TwineE(ptr noundef nonnull align 8 dereferenceable(24) %0, ptr noundef nonnull align 8 dereferenceable(34) %5) #18
  br label %_ZN4llvmeqENS_9StringRefES0_.exit.thread

_ZN4llvmeqENS_9StringRefES0_.exit.thread:         ; preds = %14, %3, %_ZN4llvmeqENS_9StringRefES0_.exit, %24, %20
  ret void
}